target datalayout = "e-m:e-p270:32:32-p271:32:32-p272:64:64-i64:64-i128:128-f80:128-n8:16:32:64-S128"
target triple = "x86_64-pc-linux-gnu"

%"struct.std::pair" = type { ptr, ptr }
%"class.Luau::Set" = type { %"class.Luau::DenseHashMap.85", i64 }
%"class.Luau::DenseHashMap.85" = type { %"class.Luau::detail::DenseHashTable.86" }
%"class.Luau::detail::DenseHashTable.86" = type <{ ptr, i64, i64, %"struct.std::pair", [8 x i8] }>
%"struct.Luau::(anonymous namespace)::SeenSetPopper" = type { ptr, %"struct.std::pair" }

; Function Attrs: mustprogress uwtable
define linkonce_odr dso_local void @_ZN4Luau3SetISt4pairIPKNS_4TypeES4_ENS_12TypePairHashEE5eraseERKS5_(ptr noundef nonnull align 8 dereferenceable(56) %0, ptr noundef nonnull align 8 dereferenceable(16) %1) #6 comdat align 2 {
  %3 = alloca ptr, align 8
  %4 = alloca ptr, align 8
  %5 = alloca ptr, align 8
  store ptr %0, ptr %3, align 8, !tbaa !196
  store ptr %1, ptr %4, align 8, !tbaa !136
  %6 = load ptr, ptr %3, align 8
  call void @llvm.lifetime.start.p0(i64 8, ptr %5) #4
  %7 = getelementptr inbounds nuw %"class.Luau::Set", ptr %6, i32 0, i32 0
  %8 = load ptr, ptr %4, align 8, !tbaa !136
  %9 = call noundef nonnull align 1 dereferenceable(1) ptr @_ZN4Luau12DenseHashMapISt4pairIPKNS_4TypeES4_EbNS_12TypePairHashESt8equal_toIS5_EEixERKS5_(ptr noundef nonnull align 8 dereferenceable(48) %7, ptr noundef nonnull align 8 dereferenceable(16) %8)
  store ptr %9, ptr %5, align 8, !tbaa !317
  %10 = load ptr, ptr %5, align 8, !tbaa !317
  %11 = load i8, ptr %10, align 1, !tbaa !26, !range !28, !noundef !29
  %12 = trunc i8 %11 to i1
  br i1 %12, label %13, label %18

13:                                               ; preds = %2
  %14 = load ptr, ptr %5, align 8, !tbaa !317
  store i8 0, ptr %14, align 1, !tbaa !26
  %15 = getelementptr inbounds nuw %"class.Luau::Set", ptr %6, i32 0, i32 1
  %16 = load i64, ptr %15, align 8, !tbaa !198
  %17 = add i64 %16, -1
  store i64 %17, ptr %15, align 8, !tbaa !198
  br label %18

18:                                               ; preds = %13, %2
  call void @llvm.lifetime.end.p0(i64 8, ptr %5) #4
  ret void
}

; Function Attrs: mustprogress nounwind uwtable
define internal void @_ZN4Luau12_GLOBAL__N_113SeenSetPopperD2Ev(ptr noundef nonnull align 8 dereferenceable(24) %0) unnamed_addr #2 align 2 personality ptr @__gxx_personality_v0 {
  %2 = alloca ptr, align 8
  store ptr %0, ptr %2, align 8, !tbaa !319
  %3 = load ptr, ptr %2, align 8
  %4 = getelementptr inbounds nuw %"struct.Luau::(anonymous namespace)::SeenSetPopper", ptr %3, i32 0, i32 0
  %5 = load ptr, ptr %4, align 8, !tbaa !321
  %6 = getelementptr inbounds nuw %"struct.Luau::(anonymous namespace)::SeenSetPopper", ptr %3, i32 0, i32 1
  invoke void @_ZN4Luau3SetISt4pairIPKNS_4TypeES4_ENS_12TypePairHashEE5eraseERKS5_(ptr noundef nonnull align 8 dereferenceable(56) %5, ptr noundef nonnull align 8 dereferenceable(16) %6)
          to label %7 unwind label %8

7:                                                ; preds = %1
  ret void

8:                                                ; preds = %1
  %9 = landingpad { ptr, i32 }
          catch ptr null
  %10 = extractvalue { ptr, i32 } %9, 0
  call void @__clang_call_terminate(ptr %10) #21
  unreachable
}