; Function Attrs: mustprogress nounwind uwtable
define internal fastcc void @_ZN4Luau12_GLOBAL__N_113SeenSetPopperD2Ev(ptr noundef nonnull align 8 dereferenceable(24) %0) unnamed_addr #7 align 2 personality ptr @__gxx_personality_v0 {
  %2 = load ptr, ptr %0, align 8, !tbaa !178
  %3 = getelementptr inbounds nuw i8, ptr %0, i64 8
  %4 = invoke noundef nonnull align 1 dereferenceable(1) ptr @_ZN4Luau12DenseHashMapISt4pairIPKNS_4TypeES4_EbNS_12TypePairHashESt8equal_toIS5_EEixERKS5_(ptr noundef nonnull align 8 dereferenceable(56) %2, ptr noundef nonnull align 8 dereferenceable(16) %3)
          to label %.noexc unwind label %11

.noexc:                                           ; preds = %1
  %5 = load i8, ptr %4, align 1, !tbaa !177, !range !40, !noundef !41
  %6 = trunc nuw i8 %5 to i1
  br i1 %6, label %7, label %_ZN4Luau3SetISt4pairIPKNS_4TypeES4_ENS_12TypePairHashEE5eraseERKS5_.exit

7:                                                ; preds = %.noexc
  store i8 0, ptr %4, align 1, !tbaa !177
  %8 = getelementptr inbounds nuw i8, ptr %2, i64 48
  %9 = load i64, ptr %8, align 8, !tbaa !141
  %10 = add i64 %9, -1
  store i64 %10, ptr %8, align 8, !tbaa !141
  br label %_ZN4Luau3SetISt4pairIPKNS_4TypeES4_ENS_12TypePairHashEE5eraseERKS5_.exit

_ZN4Luau3SetISt4pairIPKNS_4TypeES4_ENS_12TypePairHashEE5eraseERKS5_.exit: ; preds = %7, %.noexc
  ret void

11:                                               ; preds = %1
  %12 = landingpad { ptr, i32 }
          catch ptr null
  %13 = extractvalue { ptr, i32 } %12, 0
  tail call void @__clang_call_terminate(ptr %13) #27
  unreachable
}